target datalayout = "e-m:e-p270:32:32-p271:32:32-p272:64:64-i64:64-i128:128-f80:128-n8:16:32:64-S128"
target triple = "x86_64-pc-linux-gnu"

%"struct.cv::utils::trace::details::Region::LocationStaticStorage" = type { ptr, ptr, ptr, i32, i32 }
%"class.cv::utils::trace::details::Region" = type <{ ptr, i32, [4 x i8] }>
%"class.std::__cxx11::basic_string" = type { %"struct.std::__cxx11::basic_string<char>::_Alloc_hider", i64, %union.anon }
%"struct.std::__cxx11::basic_string<char>::_Alloc_hider" = type { ptr }
%union.anon = type { i64, [8 x i8] }

@.str.11 = private unnamed_addr constant [134 x i8] c"generated/home/dtcxzyw/WorkSpace/Projects/compilers/llvm-opt-benchmark/bench/opencv/opencv/modules/imgproc/src/color_rgb.dispatch.cpp\00", align 1
@_ZZN2cv3hal15cvtBGR5x5toGrayEPKhmPhmiiiE25__cv_trace_location_fn363 = internal constant %"struct.cv::utils::trace::details::Region::LocationStaticStorage" { ptr @_ZZN2cv3hal15cvtBGR5x5toGrayEPKhmPhmiiiE31__cv_trace_location_extra_fn363, ptr @.str.21, ptr @.str.11, i32 363, i32 1 }, align 8
@.str.22 = private unnamed_addr constant [83 x i8] c"HAL implementation cvtBGR5x5toGray ==> hal_ni_cvtBGR5x5toGray returned %d (0x%08x)\00", align 1
@__func__._ZN2cv3hal15cvtBGR5x5toGrayEPKhmPhmiii = private unnamed_addr constant [16 x i8] c"cvtBGR5x5toGray\00", align 1

; Function Attrs: mustprogress nounwind uwtable
define linkonce_odr hidden noundef i32 @_Z22hal_ni_cvtBGR5x5toGrayPKhmPhmiii(ptr noundef %0, i64 noundef %1, ptr noundef %2, i64 noundef %3, i32 noundef %4, i32 noundef %5, i32 noundef %6) #2 comdat {
  %8 = alloca ptr, align 8
  %9 = alloca i64, align 8
  %10 = alloca ptr, align 8
  %11 = alloca i64, align 8
  %12 = alloca i32, align 4
  %13 = alloca i32, align 4
  %14 = alloca i32, align 4
  store ptr %0, ptr %8, align 8
  store i64 %1, ptr %9, align 8
  store ptr %2, ptr %10, align 8
  store i64 %3, ptr %11, align 8
  store i32 %4, ptr %12, align 4
  store i32 %5, ptr %13, align 4
  store i32 %6, ptr %14, align 4
  ret i32 1
}

; Function Attrs: mustprogress uwtable
define void @_ZN2cv3hal15cvtBGR5x5toGrayEPKhmPhmiii(ptr noundef %0, i64 noundef %1, ptr noundef %2, i64 noundef %3, i32 noundef %4, i32 noundef %5, i32 noundef %6) #0 personality ptr @__gxx_personality_v0 {
  %8 = alloca ptr, align 8
  %9 = alloca i64, align 8
  %10 = alloca ptr, align 8
  %11 = alloca i64, align 8
  %12 = alloca i32, align 4
  %13 = alloca i32, align 4
  %14 = alloca i32, align 4
  %15 = alloca %"class.cv::utils::trace::details::Region", align 8
  %16 = alloca i32, align 4
  %17 = alloca ptr, align 8
  %18 = alloca i32, align 4
  %19 = alloca i32, align 4
  %20 = alloca %"class.std::__cxx11::basic_string", align 8
  store ptr %0, ptr %8, align 8
  store i64 %1, ptr %9, align 8
  store ptr %2, ptr %10, align 8
  store i64 %3, ptr %11, align 8
  store i32 %4, ptr %12, align 4
  store i32 %5, ptr %13, align 4
  store i32 %6, ptr %14, align 4
  call void @_ZN2cv5utils5trace7details6RegionC1ERKNS3_21LocationStaticStorageE(ptr noundef nonnull align 8 dereferenceable(12) %15, ptr noundef nonnull align 8 dereferenceable(32) @_ZZN2cv3hal15cvtBGR5x5toGrayEPKhmPhmiiiE25__cv_trace_location_fn363)
  %21 = load ptr, ptr %8, align 8
  %22 = load i64, ptr %9, align 8
  %23 = load ptr, ptr %10, align 8
  %24 = load i64, ptr %11, align 8
  %25 = load i32, ptr %12, align 4
  %26 = load i32, ptr %13, align 4
  %27 = load i32, ptr %14, align 4
  %28 = invoke noundef i32 @_Z22hal_ni_cvtBGR5x5toGrayPKhmPhmiii(ptr noundef %21, i64 noundef %22, ptr noundef %23, i64 noundef %24, i32 noundef %25, i32 noundef %26, i32 noundef %27)
          to label %29 unwind label %33

29:                                               ; preds = %7
  store i32 %28, ptr %16, align 4
  %30 = load i32, ptr %16, align 4
  %31 = icmp eq i32 %30, 0
  br i1 %31, label %32, label %37

32:                                               ; preds = %29
  store i32 1, ptr %19, align 4
  br label %59

33:                                               ; preds = %50, %40, %7
  %34 = landingpad { ptr, i32 }
          cleanup
  %35 = extractvalue { ptr, i32 } %34, 0
  store ptr %35, ptr %17, align 8
  %36 = extractvalue { ptr, i32 } %34, 1
  store i32 %36, ptr %18, align 4
  br label %60

37:                                               ; preds = %29
  %38 = load i32, ptr %16, align 4
  %39 = icmp ne i32 %38, 1
  br i1 %39, label %40, label %49

40:                                               ; preds = %37
  %41 = load i32, ptr %16, align 4
  %42 = load i32, ptr %16, align 4
  invoke void (ptr, ptr, ...) @_ZN2cv6formatB5cxx11EPKcz(ptr dead_on_unwind writable sret(%"class.std::__cxx11::basic_string") align 8 %20, ptr noundef @.str.22, i32 noundef %41, i32 noundef %42)
          to label %43 unwind label %33

43:                                               ; preds = %40
  invoke void @_ZN2cv5errorEiRKNSt7__cxx1112basic_stringIcSt11char_traitsIcESaIcEEEPKcS9_i(i32 noundef -3, ptr noundef nonnull align 8 dereferenceable(32) %20, ptr noundef @__func__._ZN2cv3hal15cvtBGR5x5toGrayEPKhmPhmiii, ptr noundef @.str.11, i32 noundef 365) #11
          to label %44 unwind label %45

44:                                               ; preds = %43
  unreachable

45:                                               ; preds = %43
  %46 = landingpad { ptr, i32 }
          cleanup
  %47 = extractvalue { ptr, i32 } %46, 0
  store ptr %47, ptr %17, align 8
  %48 = extractvalue { ptr, i32 } %46, 1
  store i32 %48, ptr %18, align 4
  call void @_ZNSt7__cxx1112basic_stringIcSt11char_traitsIcESaIcEED1Ev(ptr noundef nonnull align 8 dereferenceable(32) %20) #10
  br label %60

49:                                               ; preds = %37
  br label %50

50:                                               ; preds = %49
  %51 = load ptr, ptr %8, align 8
  %52 = load i64, ptr %9, align 8
  %53 = load ptr, ptr %10, align 8
  %54 = load i64, ptr %11, align 8
  %55 = load i32, ptr %12, align 4
  %56 = load i32, ptr %13, align 4
  %57 = load i32, ptr %14, align 4
  invoke void @_ZN2cv3hal12cpu_baseline15cvtBGR5x5toGrayEPKhmPhmiii(ptr noundef %51, i64 noundef %52, ptr noundef %53, i64 noundef %54, i32 noundef %55, i32 noundef %56, i32 noundef %57)
          to label %58 unwind label %33

58:                                               ; preds = %50
  store i32 1, ptr %19, align 4
  br label %59

59:                                               ; preds = %58, %32
  call void @_ZN2cv5utils5trace7details6RegionD2Ev(ptr noundef nonnull align 8 dereferenceable(12) %15) #10
  ret void

60:                                               ; preds = %45, %33
  call void @_ZN2cv5utils5trace7details6RegionD2Ev(ptr noundef nonnull align 8 dereferenceable(12) %15) #10
  br label %61

61:                                               ; preds = %60
  %62 = load ptr, ptr %17, align 8
  %63 = load i32, ptr %18, align 4
  %64 = insertvalue { ptr, i32 } poison, ptr %62, 0
  %65 = insertvalue { ptr, i32 } %64, i32 %63, 1
  resume { ptr, i32 } %65
}