; Function Attrs: mustprogress uwtable
define void @_ZN2cv3hal15cvtBGR5x5toGrayEPKhmPhmiii(ptr noundef %0, i64 noundef %1, ptr noundef %2, i64 noundef %3, i32 noundef %4, i32 noundef %5, i32 noundef %6) local_unnamed_addr #0 personality ptr @__gxx_personality_v0 {
  %8 = alloca %"class.cv::utils::trace::details::Region", align 8
  call void @_ZN2cv5utils5trace7details6RegionC1ERKNS3_21LocationStaticStorageE(ptr noundef nonnull align 8 dereferenceable(12) %8, ptr noundef nonnull align 8 dereferenceable(32) @_ZZN2cv3hal15cvtBGR5x5toGrayEPKhmPhmiiiE25__cv_trace_location_fn363)
  invoke void @_ZN2cv3hal12cpu_baseline15cvtBGR5x5toGrayEPKhmPhmiii(ptr noundef %0, i64 noundef %1, ptr noundef %2, i64 noundef %3, i32 noundef %4, i32 noundef %5, i32 noundef %6)
          to label %9 unwind label %16

9:                                                ; preds = %7
  %10 = getelementptr inbounds i8, ptr %8, i64 8
  %11 = load i32, ptr %10, align 8
  %.not.i = icmp eq i32 %11, 0
  br i1 %.not.i, label %_ZN2cv5utils5trace7details6RegionD2Ev.exit, label %12

12:                                               ; preds = %9
  invoke void @_ZN2cv5utils5trace7details6Region7destroyEv(ptr noundef nonnull align 8 dereferenceable(12) %8)
          to label %_ZN2cv5utils5trace7details6RegionD2Ev.exit unwind label %13

13:                                               ; preds = %12
  %14 = landingpad { ptr, i32 }
          catch ptr null
  %15 = extractvalue { ptr, i32 } %14, 0
  call void @__clang_call_terminate(ptr %15) #13
  unreachable

_ZN2cv5utils5trace7details6RegionD2Ev.exit:       ; preds = %9, %12
  ret void

16:                                               ; preds = %7
  %17 = landingpad { ptr, i32 }
          cleanup
  call void @_ZN2cv5utils5trace7details6RegionD2Ev(ptr noundef nonnull align 8 dereferenceable(12) %8) #11
  resume { ptr, i32 } %17
}